; Function Attrs: mustprogress nofree norecurse nosync nounwind willreturn memory(argmem: readwrite) uwtable
define void @nghttp2_option_set_max_reserved_remote_streams(ptr noundef captures(none) initializes((64, 68)) %0, i32 noundef %1) local_unnamed_addr #4 {
  %3 = getelementptr inbounds nuw i8, ptr %0, i64 56
  %4 = load i32, ptr %3, align 8, !tbaa !8
  %5 = or i32 %4, 16
  store i32 %5, ptr %3, align 8, !tbaa !8
  %6 = getelementptr inbounds nuw i8, ptr %0, i64 64
  store i32 %1, ptr %6, align 8, !tbaa !16
  ret void
}